; Function Attrs: nounwind uwtable
define range(i32 -22, 1) i32 @ff_formats_check_color_ranges(ptr noundef %0, ptr noundef readonly captures(address_is_null) %1) local_unnamed_addr #3 {
  %.not.i = icmp eq ptr %1, null
  br i1 %.not.i, label %check_list.exit, label %3

3:                                                ; preds = %2
  %4 = load i32, ptr %1, align 8, !tbaa !24
  %.not20.i = icmp eq i32 %4, 0
  br i1 %.not20.i, label %.loopexit21.sink.split.i, label %.preheader.i

.preheader.i:                                     ; preds = %3
  %5 = getelementptr inbounds nuw i8, ptr %1, i64 8
  %6 = zext i32 %4 to i64
  br label %7

.loopexit.i:                                      ; preds = %12, %7
  %indvars.iv.next.i = add nuw nsw i64 %indvars.iv.i, 1
  %exitcond30.not.i = icmp eq i64 %indvars.iv.next28.i, %6
  br i1 %exitcond30.not.i, label %check_list.exit, label %7, !llvm.loop !123

7:                                                ; preds = %.loopexit.i, %.preheader.i
  %indvars.iv27.i = phi i64 [ 0, %.preheader.i ], [ %indvars.iv.next28.i, %.loopexit.i ]
  %indvars.iv.i = phi i64 [ 1, %.preheader.i ], [ %indvars.iv.next.i, %.loopexit.i ]
  %indvars.iv.next28.i = add nuw nsw i64 %indvars.iv27.i, 1
  %8 = icmp samesign ult i64 %indvars.iv.next28.i, %6
  br i1 %8, label %.lr.ph.i, label %.loopexit.i

.lr.ph.i:                                         ; preds = %7
  %9 = load ptr, ptr %5, align 8, !tbaa !29
  %10 = getelementptr inbounds nuw i32, ptr %9, i64 %indvars.iv27.i
  %11 = load i32, ptr %10, align 4, !tbaa !19
  br label %13

12:                                               ; preds = %13
  %indvars.iv.next25.i = add nuw nsw i64 %indvars.iv24.i, 1
  %lftr.wideiv = trunc i64 %indvars.iv.next25.i to i32
  %exitcond = icmp eq i32 %4, %lftr.wideiv
  br i1 %exitcond, label %.loopexit.i, label %13, !llvm.loop !124

13:                                               ; preds = %12, %.lr.ph.i
  %indvars.iv24.i = phi i64 [ %indvars.iv.i, %.lr.ph.i ], [ %indvars.iv.next25.i, %12 ]
  %14 = getelementptr inbounds nuw i32, ptr %9, i64 %indvars.iv24.i
  %15 = load i32, ptr %14, align 4, !tbaa !19
  %16 = icmp eq i32 %11, %15
  br i1 %16, label %.loopexit21.sink.split.i, label %12

.loopexit21.sink.split.i:                         ; preds = %13, %3
  %.str.19.sink.i = phi ptr [ @.str.18, %3 ], [ @.str.19, %13 ]
  tail call void (ptr, i32, ptr, ...) @av_log(ptr noundef %0, i32 noundef 16, ptr noundef nonnull %.str.19.sink.i, ptr noundef nonnull @.str.8) #10
  br label %check_list.exit

check_list.exit:                                  ; preds = %.loopexit.i, %2, %.loopexit21.sink.split.i
  %.018.i = phi i32 [ 0, %2 ], [ -22, %.loopexit21.sink.split.i ], [ 0, %.loopexit.i ]
  ret i32 %.018.i
}